target datalayout = "e-m:e-p270:32:32-p271:32:32-p272:64:64-i64:64-i128:128-f80:128-n8:16:32:64-S128"
target triple = "x86_64-pc-linux-gnu"

%struct.PJconsts = type <{ ptr, ptr, ptr, ptr, ptr, ptr, ptr, ptr, ptr, ptr, ptr, ptr, i32, [4 x i8], ptr, ptr, ptr, ptr, ptr, ptr, ptr, ptr, double, double, double, double, double, double, double, double, double, double, double, double, double, double, double, double, double, double, double, double, double, double, i32, i32, i32, i32, i32, i32, i32, i32, i32, i32, i32, [4 x i8], ptr, ptr, ptr, ptr, ptr, ptr, double, double, double, double, double, double, double, double, double, double, double, i32, [4 x i8], [7 x double], i32, [4 x i8], ptr, ptr, double, double, i32, [4 x i8], %"class.std::shared_ptr", i8, [7 x i8], double, i8, [7 x i8], %"class.std::__cxx11::basic_string", %"class.std::__cxx11::basic_string", %"class.std::__cxx11::basic_string", i8, [7 x i8], %"class.std::vector", i32, [4 x i8], %"class.std::vector.3", i32, i8, i8, i8, i8 }>
%"class.std::shared_ptr" = type { %"class.std::__shared_ptr" }
%"class.std::__shared_ptr" = type { ptr, %"class.std::__shared_count" }
%"class.std::__shared_count" = type { ptr }
%"class.std::__cxx11::basic_string" = type { %"struct.std::__cxx11::basic_string<char>::_Alloc_hider", i64, %union.anon }
%"struct.std::__cxx11::basic_string<char>::_Alloc_hider" = type { ptr }
%union.anon = type { i64, [8 x i8] }
%"class.std::vector" = type { %"struct.std::_Vector_base" }
%"struct.std::_Vector_base" = type { %"struct.std::_Vector_base<osgeo::proj::operation::GridDescription, std::allocator<osgeo::proj::operation::GridDescription>>::_Vector_impl" }
%"struct.std::_Vector_base<osgeo::proj::operation::GridDescription, std::allocator<osgeo::proj::operation::GridDescription>>::_Vector_impl" = type { %"struct.std::_Vector_base<osgeo::proj::operation::GridDescription, std::allocator<osgeo::proj::operation::GridDescription>>::_Vector_impl_data" }
%"struct.std::_Vector_base<osgeo::proj::operation::GridDescription, std::allocator<osgeo::proj::operation::GridDescription>>::_Vector_impl_data" = type { ptr, ptr, ptr }
%"class.std::vector.3" = type { %"struct.std::_Vector_base.4" }
%"struct.std::_Vector_base.4" = type { %"struct.std::_Vector_base<PJCoordOperation, std::allocator<PJCoordOperation>>::_Vector_impl" }
%"struct.std::_Vector_base<PJCoordOperation, std::allocator<PJCoordOperation>>::_Vector_impl" = type { %"struct.std::_Vector_base<PJCoordOperation, std::allocator<PJCoordOperation>>::_Vector_impl_data" }
%"struct.std::_Vector_base<PJCoordOperation, std::allocator<PJCoordOperation>>::_Vector_impl_data" = type { ptr, ptr, ptr }
%union.PROJVALUE = type { double }
%"struct.(anonymous namespace)::pj_cea_data" = type { double, ptr }

@.str.1 = private unnamed_addr constant [8 x i8] c"tlat_ts\00", align 1
@.str.2 = private unnamed_addr constant [8 x i8] c"rlat_ts\00", align 1
@.str.3 = private unnamed_addr constant [53 x i8] c"Invalid value for lat_ts: |lat_ts| should be <= 90\C2\B0\00", align 1

; Function Attrs: mustprogress uwtable
define hidden noundef ptr @_Z32pj_projection_specific_setup_ceaP8PJconsts(ptr noundef %0) #0 {
  %2 = alloca ptr, align 8
  %3 = alloca ptr, align 8
  %4 = alloca double, align 8
  %5 = alloca ptr, align 8
  %6 = alloca %union.PROJVALUE, align 8
  %7 = alloca %union.PROJVALUE, align 8
  store ptr %0, ptr %3, align 8
  store double 0.000000e+00, ptr %4, align 8
  %8 = call noalias ptr @calloc(i64 noundef 1, i64 noundef 16) #7
  store ptr %8, ptr %5, align 8
  %9 = load ptr, ptr %5, align 8
  %10 = icmp eq ptr null, %9
  br i1 %10, label %11, label %14

11:                                               ; preds = %1
  %12 = load ptr, ptr %3, align 8
  %13 = call noundef ptr @_Z21pj_default_destructorP8PJconstsi(ptr noundef %12, i32 noundef 4096)
  store ptr %13, ptr %2, align 8
  br label %114

14:                                               ; preds = %1
  %15 = load ptr, ptr %5, align 8
  %16 = load ptr, ptr %3, align 8
  %17 = getelementptr inbounds %struct.PJconsts, ptr %16, i32 0, i32 11
  store ptr %15, ptr %17, align 8
  %18 = load ptr, ptr %3, align 8
  %19 = getelementptr inbounds %struct.PJconsts, ptr %18, i32 0, i32 20
  store ptr @_ZL17pj_cea_destructorP8PJconstsi, ptr %19, align 8
  %20 = load ptr, ptr %3, align 8
  %21 = getelementptr inbounds %struct.PJconsts, ptr %20, i32 0, i32 0
  %22 = load ptr, ptr %21, align 8
  %23 = load ptr, ptr %3, align 8
  %24 = getelementptr inbounds %struct.PJconsts, ptr %23, i32 0, i32 3
  %25 = load ptr, ptr %24, align 8
  %26 = call i64 @_Z8pj_paramP6pj_ctxP8ARG_listPKc(ptr noundef %22, ptr noundef %25, ptr noundef @.str.1)
  %27 = getelementptr inbounds %union.PROJVALUE, ptr %6, i32 0, i32 0
  store i64 %26, ptr %27, align 8
  %28 = load i32, ptr %6, align 8
  %29 = icmp ne i32 %28, 0
  br i1 %29, label %30, label %53

30:                                               ; preds = %14
  %31 = load ptr, ptr %3, align 8
  %32 = getelementptr inbounds %struct.PJconsts, ptr %31, i32 0, i32 0
  %33 = load ptr, ptr %32, align 8
  %34 = load ptr, ptr %3, align 8
  %35 = getelementptr inbounds %struct.PJconsts, ptr %34, i32 0, i32 3
  %36 = load ptr, ptr %35, align 8
  %37 = call i64 @_Z8pj_paramP6pj_ctxP8ARG_listPKc(ptr noundef %33, ptr noundef %36, ptr noundef @.str.2)
  %38 = getelementptr inbounds %union.PROJVALUE, ptr %7, i32 0, i32 0
  store i64 %37, ptr %38, align 8
  %39 = load double, ptr %7, align 8
  store double %39, ptr %4, align 8
  %40 = load double, ptr %4, align 8
  %41 = call double @cos(double noundef %40) #8
  %42 = load ptr, ptr %3, align 8
  %43 = getelementptr inbounds %struct.PJconsts, ptr %42, i32 0, i32 68
  store double %41, ptr %43, align 8
  %44 = load ptr, ptr %3, align 8
  %45 = getelementptr inbounds %struct.PJconsts, ptr %44, i32 0, i32 68
  %46 = load double, ptr %45, align 8
  %47 = fcmp olt double %46, 0.000000e+00
  br i1 %47, label %48, label %52

48:                                               ; preds = %30
  %49 = load ptr, ptr %3, align 8
  call void (ptr, ptr, ...) @_Z14proj_log_errorPK8PJconstsPKcz(ptr noundef %49, ptr noundef @.str.3)
  %50 = load ptr, ptr %3, align 8
  %51 = call noundef ptr @_Z21pj_default_destructorP8PJconstsi(ptr noundef %50, i32 noundef 1027)
  store ptr %51, ptr %2, align 8
  br label %114

52:                                               ; preds = %30
  br label %53

53:                                               ; preds = %52, %14
  %54 = load ptr, ptr %3, align 8
  %55 = getelementptr inbounds %struct.PJconsts, ptr %54, i32 0, i32 28
  %56 = load double, ptr %55, align 8
  %57 = fcmp une double %56, 0.000000e+00
  br i1 %57, label %58, label %107

58:                                               ; preds = %53
  %59 = load double, ptr %4, align 8
  %60 = call double @sin(double noundef %59) #8
  store double %60, ptr %4, align 8
  %61 = load ptr, ptr %3, align 8
  %62 = getelementptr inbounds %struct.PJconsts, ptr %61, i32 0, i32 28
  %63 = load double, ptr %62, align 8
  %64 = load double, ptr %4, align 8
  %65 = fmul double %63, %64
  %66 = load double, ptr %4, align 8
  %67 = fneg double %65
  %68 = call double @llvm.fmuladd.f64(double %67, double %66, double 1.000000e+00)
  %69 = call double @sqrt(double noundef %68) #8
  %70 = load ptr, ptr %3, align 8
  %71 = getelementptr inbounds %struct.PJconsts, ptr %70, i32 0, i32 68
  %72 = load double, ptr %71, align 8
  %73 = fdiv double %72, %69
  store double %73, ptr %71, align 8
  %74 = load ptr, ptr %3, align 8
  %75 = getelementptr inbounds %struct.PJconsts, ptr %74, i32 0, i32 28
  %76 = load double, ptr %75, align 8
  %77 = call double @sqrt(double noundef %76) #8
  %78 = load ptr, ptr %3, align 8
  %79 = getelementptr inbounds %struct.PJconsts, ptr %78, i32 0, i32 27
  store double %77, ptr %79, align 8
  %80 = load ptr, ptr %3, align 8
  %81 = getelementptr inbounds %struct.PJconsts, ptr %80, i32 0, i32 28
  %82 = load double, ptr %81, align 8
  %83 = call noundef ptr @_Z10pj_authsetd(double noundef %82)
  %84 = load ptr, ptr %5, align 8
  %85 = getelementptr inbounds %"struct.(anonymous namespace)::pj_cea_data", ptr %84, i32 0, i32 1
  store ptr %83, ptr %85, align 8
  %86 = load ptr, ptr %5, align 8
  %87 = getelementptr inbounds %"struct.(anonymous namespace)::pj_cea_data", ptr %86, i32 0, i32 1
  %88 = load ptr, ptr %87, align 8
  %89 = icmp ne ptr %88, null
  br i1 %89, label %93, label %90

90:                                               ; preds = %58
  %91 = load ptr, ptr %3, align 8
  %92 = call noundef ptr @_Z21pj_default_destructorP8PJconstsi(ptr noundef %91, i32 noundef 4096)
  store ptr %92, ptr %2, align 8
  br label %114

93:                                               ; preds = %58
  %94 = load ptr, ptr %3, align 8
  %95 = getelementptr inbounds %struct.PJconsts, ptr %94, i32 0, i32 27
  %96 = load double, ptr %95, align 8
  %97 = load ptr, ptr %3, align 8
  %98 = getelementptr inbounds %struct.PJconsts, ptr %97, i32 0, i32 33
  %99 = load double, ptr %98, align 8
  %100 = call noundef double @_Z7pj_qsfnddd(double noundef 1.000000e+00, double noundef %96, double noundef %99)
  %101 = load ptr, ptr %5, align 8
  %102 = getelementptr inbounds %"struct.(anonymous namespace)::pj_cea_data", ptr %101, i32 0, i32 0
  store double %100, ptr %102, align 8
  %103 = load ptr, ptr %3, align 8
  %104 = getelementptr inbounds %struct.PJconsts, ptr %103, i32 0, i32 15
  store ptr @_ZL13cea_e_inverse5PJ_XYP8PJconsts, ptr %104, align 8
  %105 = load ptr, ptr %3, align 8
  %106 = getelementptr inbounds %struct.PJconsts, ptr %105, i32 0, i32 14
  store ptr @_ZL13cea_e_forward5PJ_LPP8PJconsts, ptr %106, align 8
  br label %112

107:                                              ; preds = %53
  %108 = load ptr, ptr %3, align 8
  %109 = getelementptr inbounds %struct.PJconsts, ptr %108, i32 0, i32 15
  store ptr @_ZL13cea_s_inverse5PJ_XYP8PJconsts, ptr %109, align 8
  %110 = load ptr, ptr %3, align 8
  %111 = getelementptr inbounds %struct.PJconsts, ptr %110, i32 0, i32 14
  store ptr @_ZL13cea_s_forward5PJ_LPP8PJconsts, ptr %111, align 8
  br label %112

112:                                              ; preds = %107, %93
  %113 = load ptr, ptr %3, align 8
  store ptr %113, ptr %2, align 8
  br label %114

114:                                              ; preds = %112, %90, %48, %11
  %115 = load ptr, ptr %2, align 8
  ret ptr %115
}