; Function Attrs: mustprogress uwtable
define hidden noundef ptr @_Z32pj_projection_specific_setup_ceaP8PJconsts(ptr noundef %0) local_unnamed_addr #0 {
  %2 = tail call noalias dereferenceable_or_null(16) ptr @calloc(i64 noundef 1, i64 noundef 16) #7
  %3 = icmp eq ptr %2, null
  br i1 %3, label %4, label %6

4:                                                ; preds = %1
  %5 = tail call noundef ptr @_Z21pj_default_destructorP8PJconstsi(ptr noundef %0, i32 noundef 4096)
  br label %56

6:                                                ; preds = %1
  %7 = getelementptr inbounds i8, ptr %0, i64 88
  store ptr %2, ptr %7, align 8
  %8 = getelementptr inbounds i8, ptr %0, i64 152
  store ptr @_ZL17pj_cea_destructorP8PJconstsi, ptr %8, align 8
  %9 = load ptr, ptr %0, align 8
  %10 = getelementptr inbounds i8, ptr %0, i64 24
  %11 = load ptr, ptr %10, align 8
  %12 = tail call i64 @_Z8pj_paramP6pj_ctxP8ARG_listPKc(ptr noundef %9, ptr noundef %11, ptr noundef nonnull @.str.1)
  %13 = and i64 %12, 4294967295
  %.not = icmp eq i64 %13, 0
  br i1 %.not, label %24, label %14

14:                                               ; preds = %6
  %15 = load ptr, ptr %0, align 8
  %16 = load ptr, ptr %10, align 8
  %17 = tail call i64 @_Z8pj_paramP6pj_ctxP8ARG_listPKc(ptr noundef %15, ptr noundef %16, ptr noundef nonnull @.str.2)
  %18 = bitcast i64 %17 to double
  %19 = tail call double @cos(double noundef %18) #8
  %20 = getelementptr inbounds i8, ptr %0, i64 488
  store double %19, ptr %20, align 8
  %21 = fcmp olt double %19, 0.000000e+00
  br i1 %21, label %22, label %24

22:                                               ; preds = %14
  tail call void (ptr, ptr, ...) @_Z14proj_log_errorPK8PJconstsPKcz(ptr noundef nonnull %0, ptr noundef nonnull @.str.3)
  %23 = tail call noundef ptr @_Z21pj_default_destructorP8PJconstsi(ptr noundef nonnull %0, i32 noundef 1027)
  br label %56

24:                                               ; preds = %14, %6
  %.036 = phi double [ %18, %14 ], [ 0.000000e+00, %6 ]
  %25 = getelementptr inbounds i8, ptr %0, i64 216
  %26 = load double, ptr %25, align 8
  %27 = fcmp une double %26, 0.000000e+00
  br i1 %27, label %28, label %53

28:                                               ; preds = %24
  %29 = tail call double @sin(double noundef %.036) #8
  %30 = load double, ptr %25, align 8
  %31 = fneg double %30
  %32 = fmul double %29, %31
  %33 = tail call double @llvm.fmuladd.f64(double %32, double %29, double 1.000000e+00)
  %34 = tail call double @sqrt(double noundef %33) #8
  %35 = getelementptr inbounds i8, ptr %0, i64 488
  %36 = load double, ptr %35, align 8
  %37 = fdiv double %36, %34
  store double %37, ptr %35, align 8
  %38 = load double, ptr %25, align 8
  %39 = tail call double @sqrt(double noundef %38) #8
  %40 = getelementptr inbounds i8, ptr %0, i64 208
  store double %39, ptr %40, align 8
  %41 = load double, ptr %25, align 8
  %42 = tail call noundef ptr @_Z10pj_authsetd(double noundef %41)
  %43 = getelementptr inbounds i8, ptr %2, i64 8
  store ptr %42, ptr %43, align 8
  %.not38 = icmp eq ptr %42, null
  br i1 %.not38, label %44, label %46

44:                                               ; preds = %28
  %45 = tail call noundef ptr @_Z21pj_default_destructorP8PJconstsi(ptr noundef nonnull %0, i32 noundef 4096)
  br label %56

46:                                               ; preds = %28
  %47 = load double, ptr %40, align 8
  %48 = getelementptr inbounds i8, ptr %0, i64 256
  %49 = load double, ptr %48, align 8
  %50 = tail call noundef double @_Z7pj_qsfnddd(double noundef 1.000000e+00, double noundef %47, double noundef %49)
  store double %50, ptr %2, align 8
  %51 = getelementptr inbounds i8, ptr %0, i64 112
  store ptr @_ZL13cea_e_inverse5PJ_XYP8PJconsts, ptr %51, align 8
  %52 = getelementptr inbounds i8, ptr %0, i64 104
  store ptr @_ZL13cea_e_forward5PJ_LPP8PJconsts, ptr %52, align 8
  br label %56

53:                                               ; preds = %24
  %54 = getelementptr inbounds i8, ptr %0, i64 112
  store ptr @_ZL13cea_s_inverse5PJ_XYP8PJconsts, ptr %54, align 8
  %55 = getelementptr inbounds i8, ptr %0, i64 104
  store ptr @_ZL13cea_s_forward5PJ_LPP8PJconsts, ptr %55, align 8
  br label %56

56:                                               ; preds = %46, %53, %44, %22, %4
  %.0 = phi ptr [ %5, %4 ], [ %23, %22 ], [ %45, %44 ], [ %0, %53 ], [ %0, %46 ]
  ret ptr %.0
}